target datalayout = "e-m:e-p270:32:32-p271:32:32-p272:64:64-i64:64-i128:128-f80:128-n8:16:32:64-S128"
target triple = "x86_64-pc-linux-gnu"

%struct.PyMutex = type { i8 }
%struct._PyRecursiveMutex = type { %struct.PyMutex, i64, i64 }

; Function Attrs: nounwind uwtable
define dso_local void @PyMutex_Lock(ptr noundef %0) #0 {
  %2 = alloca ptr, align 8
  store ptr %0, ptr %2, align 8, !tbaa !4
  %3 = load ptr, ptr %2, align 8, !tbaa !4
  %4 = call i32 @_PyMutex_LockTimed(ptr noundef %3, i64 noundef -1, i32 noundef 1)
  ret void
}

; Function Attrs: inlinehint nounwind uwtable
define internal i32 @_Py_atomic_compare_exchange_uint8(ptr noundef %0, ptr noundef %1, i8 noundef zeroext %2) #2 {
  %4 = alloca ptr, align 8
  %5 = alloca ptr, align 8
  %6 = alloca i8, align 1
  %7 = alloca i8, align 1
  %8 = alloca i8, align 1
  store ptr %0, ptr %4, align 8, !tbaa !17
  store ptr %1, ptr %5, align 8, !tbaa !17
  store i8 %2, ptr %6, align 1, !tbaa !13
  %9 = load ptr, ptr %4, align 8, !tbaa !17
  %10 = load ptr, ptr %5, align 8, !tbaa !17
  %11 = load i8, ptr %6, align 1, !tbaa !13
  store i8 %11, ptr %7, align 1, !tbaa !13
  %12 = load i8, ptr %10, align 1
  %13 = load i8, ptr %7, align 1
  %14 = cmpxchg ptr %9, i8 %12, i8 %13 seq_cst seq_cst, align 1
  %15 = extractvalue { i8, i1 } %14, 0
  %16 = extractvalue { i8, i1 } %14, 1
  br i1 %16, label %18, label %17

17:                                               ; preds = %3
  store i8 %15, ptr %10, align 1
  br label %18

18:                                               ; preds = %17, %3
  %19 = zext i1 %16 to i8
  store i8 %19, ptr %8, align 1, !tbaa !19
  %20 = load i8, ptr %8, align 1, !tbaa !19, !range !21, !noundef !22
  %21 = trunc i8 %20 to i1
  %22 = zext i1 %21 to i32
  ret i32 %22
}

; Function Attrs: inlinehint nounwind uwtable
define internal i64 @_Py_atomic_load_ullong_relaxed(ptr noundef %0) #2 {
  %2 = alloca ptr, align 8
  %3 = alloca i64, align 8
  store ptr %0, ptr %2, align 8, !tbaa !40
  %4 = load ptr, ptr %2, align 8, !tbaa !40
  %5 = load atomic i64, ptr %4 monotonic, align 8
  store i64 %5, ptr %3, align 8
  %6 = load i64, ptr %3, align 8, !tbaa !35
  ret i64 %6
}

; Function Attrs: inlinehint nounwind uwtable
define internal void @_Py_atomic_store_ullong_relaxed(ptr noundef %0, i64 noundef %1) #2 {
  %3 = alloca ptr, align 8
  %4 = alloca i64, align 8
  %5 = alloca i64, align 8
  store ptr %0, ptr %3, align 8, !tbaa !40
  store i64 %1, ptr %4, align 8, !tbaa !35
  %6 = load ptr, ptr %3, align 8, !tbaa !40
  %7 = load i64, ptr %4, align 8, !tbaa !35
  store i64 %7, ptr %5, align 8, !tbaa !35
  %8 = load i64, ptr %5, align 8
  store atomic i64 %8, ptr %6 monotonic, align 8
  ret void
}

; Function Attrs: inlinehint nounwind uwtable
define internal void @_PyMutex_Lock(ptr noundef %0) #2 {
  %2 = alloca ptr, align 8
  %3 = alloca i8, align 1
  store ptr %0, ptr %2, align 8, !tbaa !4
  call void @llvm.lifetime.start.p0(i64 1, ptr %3) #7
  store i8 0, ptr %3, align 1, !tbaa !13
  %4 = load ptr, ptr %2, align 8, !tbaa !4
  %5 = getelementptr inbounds nuw %struct.PyMutex, ptr %4, i32 0, i32 0
  %6 = call i32 @_Py_atomic_compare_exchange_uint8(ptr noundef %5, ptr noundef %3, i8 noundef zeroext 1)
  %7 = icmp ne i32 %6, 0
  br i1 %7, label %10, label %8

8:                                                ; preds = %1
  %9 = load ptr, ptr %2, align 8, !tbaa !4
  call void @PyMutex_Lock(ptr noundef %9)
  br label %10

10:                                               ; preds = %8, %1
  call void @llvm.lifetime.end.p0(i64 1, ptr %3) #7
  ret void
}

; Function Attrs: nounwind uwtable
define internal i32 @recursive_mutex_is_owned_by(ptr noundef %0, i64 noundef %1) #0 {
  %3 = alloca ptr, align 8
  %4 = alloca i64, align 8
  store ptr %0, ptr %3, align 8, !tbaa !25
  store i64 %1, ptr %4, align 8, !tbaa !35
  %5 = load ptr, ptr %3, align 8, !tbaa !25
  %6 = getelementptr inbounds nuw %struct._PyRecursiveMutex, ptr %5, i32 0, i32 1
  %7 = call i64 @_Py_atomic_load_ullong_relaxed(ptr noundef %6)
  %8 = load i64, ptr %4, align 8, !tbaa !35
  %9 = icmp eq i64 %7, %8
  %10 = zext i1 %9 to i32
  ret i32 %10
}

; Function Attrs: nounwind uwtable
define dso_local void @_PyRecursiveMutex_Lock(ptr noundef %0) #0 {
  %2 = alloca ptr, align 8
  %3 = alloca i64, align 8
  %4 = alloca i32, align 4
  store ptr %0, ptr %2, align 8, !tbaa !25
  call void @llvm.lifetime.start.p0(i64 8, ptr %3) #7
  %5 = call i64 @PyThread_get_thread_ident_ex()
  store i64 %5, ptr %3, align 8, !tbaa !35
  %6 = load ptr, ptr %2, align 8, !tbaa !25
  %7 = load i64, ptr %3, align 8, !tbaa !35
  %8 = call i32 @recursive_mutex_is_owned_by(ptr noundef %6, i64 noundef %7)
  %9 = icmp ne i32 %8, 0
  br i1 %9, label %10, label %15

10:                                               ; preds = %1
  %11 = load ptr, ptr %2, align 8, !tbaa !25
  %12 = getelementptr inbounds nuw %struct._PyRecursiveMutex, ptr %11, i32 0, i32 2
  %13 = load i64, ptr %12, align 8, !tbaa !37
  %14 = add i64 %13, 1
  store i64 %14, ptr %12, align 8, !tbaa !37
  store i32 1, ptr %4, align 4
  br label %21

15:                                               ; preds = %1
  %16 = load ptr, ptr %2, align 8, !tbaa !25
  %17 = getelementptr inbounds nuw %struct._PyRecursiveMutex, ptr %16, i32 0, i32 0
  call void @_PyMutex_Lock(ptr noundef %17)
  %18 = load ptr, ptr %2, align 8, !tbaa !25
  %19 = getelementptr inbounds nuw %struct._PyRecursiveMutex, ptr %18, i32 0, i32 1
  %20 = load i64, ptr %3, align 8, !tbaa !35
  call void @_Py_atomic_store_ullong_relaxed(ptr noundef %19, i64 noundef %20)
  store i32 0, ptr %4, align 4
  br label %21

21:                                               ; preds = %15, %10
  call void @llvm.lifetime.end.p0(i64 8, ptr %3) #7
  %22 = load i32, ptr %4, align 4
  switch i32 %22, label %24 [
    i32 0, label %23
    i32 1, label %23
  ]

23:                                               ; preds = %21, %21
  ret void

24:                                               ; preds = %21
  unreachable
}