; Function Attrs: nounwind uwtable
define dso_local void @_PyRecursiveMutex_Lock(ptr noundef %0) local_unnamed_addr #0 {
  %2 = tail call i64 @PyThread_get_thread_ident_ex() #8
  %3 = getelementptr inbounds nuw i8, ptr %0, i64 8
  %4 = load atomic i64, ptr %3 monotonic, align 8
  %.not = icmp eq i64 %4, %2
  br i1 %.not, label %5, label %9

5:                                                ; preds = %1
  %6 = getelementptr inbounds nuw i8, ptr %0, i64 16
  %7 = load i64, ptr %6, align 8, !tbaa !20
  %8 = add i64 %7, 1
  store i64 %8, ptr %6, align 8, !tbaa !20
  br label %14

9:                                                ; preds = %1
  %10 = cmpxchg ptr %0, i8 0, i8 1 seq_cst seq_cst, align 1
  %11 = extractvalue { i8, i1 } %10, 1
  br i1 %11, label %_PyMutex_Lock.exit, label %12

12:                                               ; preds = %9
  %13 = tail call i32 @_PyMutex_LockTimed(ptr noundef nonnull %0, i64 noundef -1, i32 noundef 1)
  br label %_PyMutex_Lock.exit

_PyMutex_Lock.exit:                               ; preds = %9, %12
  store atomic i64 %2, ptr %3 monotonic, align 8
  br label %14

14:                                               ; preds = %_PyMutex_Lock.exit, %5
  ret void
}